target datalayout = "e-m:e-p270:32:32-p271:32:32-p272:64:64-i64:64-i128:128-f80:128-n8:16:32:64-S128"
target triple = "x86_64-pc-linux-gnu"

%struct.AVPixFmtDescriptor = type { ptr, i8, i8, i8, i64, [4 x %struct.AVComponentDescriptor], ptr }
%struct.AVComponentDescriptor = type { i32, i32, i32, i32, i32 }

; Function Attrs: nounwind uwtable
define internal i32 @query_formats(ptr noundef %0, ptr noundef %1, ptr noundef %2) #0 {
  %4 = alloca i32, align 4
  %5 = alloca ptr, align 8
  %6 = alloca ptr, align 8
  %7 = alloca ptr, align 8
  %8 = alloca ptr, align 8
  %9 = alloca i32, align 4
  %10 = alloca i32, align 4
  %11 = alloca ptr, align 8
  %12 = alloca i32, align 4
  store ptr %0, ptr %5, align 8, !tbaa !47
  store ptr %1, ptr %6, align 8, !tbaa !68
  store ptr %2, ptr %7, align 8, !tbaa !68
  call void @llvm.lifetime.start.p0(i64 8, ptr %8) #10
  store ptr null, ptr %8, align 8, !tbaa !70
  call void @llvm.lifetime.start.p0(i64 4, ptr %9) #10
  call void @llvm.lifetime.start.p0(i64 4, ptr %10) #10
  store i32 0, ptr %9, align 4, !tbaa !23
  br label %13

13:                                               ; preds = %78, %3
  %14 = load i32, ptr %9, align 4, !tbaa !23
  %15 = call ptr @av_pix_fmt_desc_get(i32 noundef %14)
  %16 = icmp ne ptr %15, null
  br i1 %16, label %17, label %81

17:                                               ; preds = %13
  call void @llvm.lifetime.start.p0(i64 8, ptr %11) #10
  %18 = load i32, ptr %9, align 4, !tbaa !23
  %19 = call ptr @av_pix_fmt_desc_get(i32 noundef %18)
  store ptr %19, ptr %11, align 8, !tbaa !32
  %20 = load ptr, ptr %11, align 8, !tbaa !32
  %21 = getelementptr inbounds nuw %struct.AVPixFmtDescriptor, ptr %20, i32 0, i32 4
  %22 = load i64, ptr %21, align 8, !tbaa !72
  %23 = and i64 %22, 46
  %24 = icmp ne i64 %23, 0
  br i1 %24, label %74, label %25

25:                                               ; preds = %17
  %26 = load ptr, ptr %11, align 8, !tbaa !32
  %27 = getelementptr inbounds nuw %struct.AVPixFmtDescriptor, ptr %26, i32 0, i32 4
  %28 = load i64, ptr %27, align 8, !tbaa !72
  %29 = and i64 %28, 16
  %30 = icmp ne i64 %29, 0
  br i1 %30, label %37, label %31

31:                                               ; preds = %25
  %32 = load ptr, ptr %11, align 8, !tbaa !32
  %33 = getelementptr inbounds nuw %struct.AVPixFmtDescriptor, ptr %32, i32 0, i32 1
  %34 = load i8, ptr %33, align 8, !tbaa !74
  %35 = zext i8 %34 to i32
  %36 = icmp eq i32 %35, 1
  br i1 %36, label %37, label %74

37:                                               ; preds = %31, %25
  %38 = load ptr, ptr %11, align 8, !tbaa !32
  %39 = getelementptr inbounds nuw %struct.AVPixFmtDescriptor, ptr %38, i32 0, i32 4
  %40 = load i64, ptr %39, align 8, !tbaa !72
  %41 = and i64 %40, 1
  %42 = icmp ne i64 %41, 0
  %43 = xor i1 %42, true
  %44 = zext i1 %43 to i32
  %45 = icmp eq i32 %44, 1
  br i1 %45, label %53, label %46

46:                                               ; preds = %37
  %47 = load ptr, ptr %11, align 8, !tbaa !32
  %48 = getelementptr inbounds nuw %struct.AVPixFmtDescriptor, ptr %47, i32 0, i32 5
  %49 = getelementptr inbounds [4 x %struct.AVComponentDescriptor], ptr %48, i64 0, i64 0
  %50 = getelementptr inbounds nuw %struct.AVComponentDescriptor, ptr %49, i32 0, i32 4
  %51 = load i32, ptr %50, align 8, !tbaa !40
  %52 = icmp eq i32 %51, 8
  br i1 %52, label %53, label %74

53:                                               ; preds = %46, %37
  %54 = load ptr, ptr %11, align 8, !tbaa !32
  %55 = getelementptr inbounds nuw %struct.AVPixFmtDescriptor, ptr %54, i32 0, i32 5
  %56 = getelementptr inbounds [4 x %struct.AVComponentDescriptor], ptr %55, i64 0, i64 0
  %57 = getelementptr inbounds nuw %struct.AVComponentDescriptor, ptr %56, i32 0, i32 4
  %58 = load i32, ptr %57, align 8, !tbaa !40
  %59 = icmp eq i32 %58, 8
  br i1 %59, label %67, label %60

60:                                               ; preds = %53
  %61 = load ptr, ptr %11, align 8, !tbaa !32
  %62 = getelementptr inbounds nuw %struct.AVPixFmtDescriptor, ptr %61, i32 0, i32 5
  %63 = getelementptr inbounds [4 x %struct.AVComponentDescriptor], ptr %62, i64 0, i64 0
  %64 = getelementptr inbounds nuw %struct.AVComponentDescriptor, ptr %63, i32 0, i32 4
  %65 = load i32, ptr %64, align 8, !tbaa !40
  %66 = icmp eq i32 %65, 10
  br i1 %66, label %67, label %74

67:                                               ; preds = %60, %53
  %68 = load i32, ptr %9, align 4, !tbaa !23
  %69 = sext i32 %68 to i64
  %70 = call i32 @ff_add_format(ptr noundef %8, i64 noundef %69)
  store i32 %70, ptr %10, align 4, !tbaa !23
  %71 = icmp slt i32 %70, 0
  br i1 %71, label %72, label %74

72:                                               ; preds = %67
  %73 = load i32, ptr %10, align 4, !tbaa !23
  store i32 %73, ptr %4, align 4
  store i32 1, ptr %12, align 4
  br label %75

74:                                               ; preds = %67, %60, %46, %31, %17
  store i32 0, ptr %12, align 4
  br label %75

75:                                               ; preds = %74, %72
  call void @llvm.lifetime.end.p0(i64 8, ptr %11) #10
  %76 = load i32, ptr %12, align 4
  switch i32 %76, label %87 [
    i32 0, label %77
  ]

77:                                               ; preds = %75
  br label %78

78:                                               ; preds = %77
  %79 = load i32, ptr %9, align 4, !tbaa !23
  %80 = add nsw i32 %79, 1
  store i32 %80, ptr %9, align 4, !tbaa !23
  br label %13, !llvm.loop !75

81:                                               ; preds = %13
  %82 = load ptr, ptr %5, align 8, !tbaa !47
  %83 = load ptr, ptr %6, align 8, !tbaa !68
  %84 = load ptr, ptr %7, align 8, !tbaa !68
  %85 = load ptr, ptr %8, align 8, !tbaa !70
  %86 = call i32 @ff_set_common_formats2(ptr noundef %82, ptr noundef %83, ptr noundef %84, ptr noundef %85)
  store i32 %86, ptr %4, align 4
  store i32 1, ptr %12, align 4
  br label %87

87:                                               ; preds = %81, %75
  call void @llvm.lifetime.end.p0(i64 4, ptr %10) #10
  call void @llvm.lifetime.end.p0(i64 4, ptr %9) #10
  call void @llvm.lifetime.end.p0(i64 8, ptr %8) #10
  %88 = load i32, ptr %4, align 4
  ret i32 %88
}