; Function Attrs: nounwind uwtable
define internal i32 @query_formats(ptr noundef %0, ptr noundef %1, ptr noundef %2) #0 {
  %4 = alloca ptr, align 8
  call void @llvm.lifetime.start.p0(i64 8, ptr nonnull %4) #10
  store ptr null, ptr %4, align 8, !tbaa !54
  %5 = tail call ptr @av_pix_fmt_desc_get(i32 noundef 0) #10
  %.not26 = icmp eq ptr %5, null
  br i1 %.not26, label %._crit_edge, label %.lr.ph

.lr.ph:                                           ; preds = %3, %24
  %indvars.iv = phi i64 [ %indvars.iv.next, %24 ], [ 0, %3 ]
  %6 = trunc nuw nsw i64 %indvars.iv to i32
  %7 = call ptr @av_pix_fmt_desc_get(i32 noundef %6) #10
  %8 = getelementptr inbounds nuw i8, ptr %7, i64 16
  %9 = load i64, ptr %8, align 8, !tbaa !56
  %10 = and i64 %9, 46
  %.not20 = icmp eq i64 %10, 0
  br i1 %.not20, label %11, label %24

11:                                               ; preds = %.lr.ph
  %12 = and i64 %9, 16
  %.not21 = icmp eq i64 %12, 0
  br i1 %.not21, label %13, label %17

13:                                               ; preds = %11
  %14 = getelementptr inbounds nuw i8, ptr %7, i64 8
  %15 = load i8, ptr %14, align 8, !tbaa !58
  %16 = icmp eq i8 %15, 1
  br i1 %16, label %17, label %24

17:                                               ; preds = %13, %11
  %18 = and i64 %9, 1
  %.not22 = icmp eq i64 %18, 0
  %.phi.trans.insert = getelementptr inbounds nuw i8, ptr %7, i64 40
  %.pre = load i32, ptr %.phi.trans.insert, align 8, !tbaa !32
  br i1 %.not22, label %21, label %19

19:                                               ; preds = %17
  %20 = icmp eq i32 %.pre, 8
  br i1 %20, label %.thread, label %24

21:                                               ; preds = %17
  switch i32 %.pre, label %24 [
    i32 8, label %.thread
    i32 10, label %.thread
  ]

.thread:                                          ; preds = %19, %21, %21
  %22 = call i32 @ff_add_format(ptr noundef nonnull %4, i64 noundef %indvars.iv) #10
  %23 = icmp slt i32 %22, 0
  br i1 %23, label %.loopexit, label %24

24:                                               ; preds = %.lr.ph, %13, %19, %.thread, %21
  %indvars.iv.next = add nuw nsw i64 %indvars.iv, 1
  %25 = trunc nuw i64 %indvars.iv.next to i32
  %26 = call ptr @av_pix_fmt_desc_get(i32 noundef %25) #10
  %.not = icmp eq ptr %26, null
  br i1 %.not, label %._crit_edge.loopexit, label %.lr.ph, !llvm.loop !59

._crit_edge.loopexit:                             ; preds = %24
  %.pre30 = load ptr, ptr %4, align 8, !tbaa !54
  br label %._crit_edge

._crit_edge:                                      ; preds = %._crit_edge.loopexit, %3
  %27 = phi ptr [ %.pre30, %._crit_edge.loopexit ], [ null, %3 ]
  %28 = call i32 @ff_set_common_formats2(ptr noundef %0, ptr noundef %1, ptr noundef %2, ptr noundef %27) #10
  br label %.loopexit

.loopexit:                                        ; preds = %.thread, %._crit_edge
  %.2 = phi i32 [ %28, %._crit_edge ], [ %22, %.thread ]
  call void @llvm.lifetime.end.p0(i64 8, ptr nonnull %4) #10
  ret i32 %.2
}